; Function Attrs: mustprogress uwtable
define noundef ptr @_ZN15VoipCallsDialog22openVoipCallsDialogSipER7QWidgetR11CaptureFileP7QObject(ptr noundef nonnull align 8 dereferenceable(40) %0, ptr noundef nonnull align 8 dereferenceable(48) %1, ptr noundef %2) local_unnamed_addr #0 align 2 personality ptr @__gxx_personality_v0 {
  %4 = alloca %"class.QMetaObject::Connection", align 8
  %5 = tail call noundef i32 @pthread_mutex_lock(ptr noundef nonnull @_ZN15VoipCallsDialog11init_mutex_E) #19
  %.not.i.i = icmp eq i32 %5, 0
  br i1 %.not.i.i, label %_ZNSt10lock_guardISt5mutexEC2ERS0_.exit, label %6

6:                                                ; preds = %3
  tail call void @_ZSt20__throw_system_errori(i32 noundef %5) #20
  unreachable

_ZNSt10lock_guardISt5mutexEC2ERS0_.exit:          ; preds = %3
  %7 = load ptr, ptr @_ZN15VoipCallsDialog14pinstance_sip_E, align 8
  %8 = icmp eq ptr %7, null
  br i1 %8, label %9, label %18

9:                                                ; preds = %_ZNSt10lock_guardISt5mutexEC2ERS0_.exit
  %10 = invoke noalias noundef nonnull dereferenceable(480) ptr @_Znwm(i64 noundef 480) #21
          to label %11 unwind label %14

11:                                               ; preds = %9
  invoke void @_ZN15VoipCallsDialogC1ER7QWidgetR11CaptureFileb(ptr noundef nonnull align 8 dereferenceable(480) %10, ptr noundef nonnull align 8 dereferenceable(40) %0, ptr noundef nonnull align 8 dereferenceable(48) %1, i1 noundef zeroext true)
          to label %12 unwind label %16

12:                                               ; preds = %11
  store ptr %10, ptr @_ZN15VoipCallsDialog14pinstance_sip_E, align 8
  invoke void @_ZN7QObject7connectEPKS_PKcS1_S3_N2Qt14ConnectionTypeE(ptr dead_on_unwind nonnull writable sret(%"class.QMetaObject::Connection") align 8 %4, ptr noundef nonnull %10, ptr noundef nonnull @.str, ptr noundef %2, ptr noundef nonnull @.str.1, i32 noundef 0)
          to label %13 unwind label %14

13:                                               ; preds = %12
  call void @_ZN11QMetaObject10ConnectionD1Ev(ptr noundef nonnull align 8 dereferenceable(8) %4) #19
  %.pre = load ptr, ptr @_ZN15VoipCallsDialog14pinstance_sip_E, align 8
  br label %18

14:                                               ; preds = %12, %9
  %15 = landingpad { ptr, i32 }
          cleanup
  br label %21

16:                                               ; preds = %11
  %17 = landingpad { ptr, i32 }
          cleanup
  tail call void @_ZdlPv(ptr noundef nonnull %10) #22
  br label %21

18:                                               ; preds = %13, %_ZNSt10lock_guardISt5mutexEC2ERS0_.exit
  %19 = phi ptr [ %.pre, %13 ], [ %7, %_ZNSt10lock_guardISt5mutexEC2ERS0_.exit ]
  %20 = call noundef i32 @pthread_mutex_unlock(ptr noundef nonnull @_ZN15VoipCallsDialog11init_mutex_E) #19
  ret ptr %19

21:                                               ; preds = %16, %14
  %.pn = phi { ptr, i32 } [ %15, %14 ], [ %17, %16 ]
  %22 = call noundef i32 @pthread_mutex_unlock(ptr noundef nonnull @_ZN15VoipCallsDialog11init_mutex_E) #19
  resume { ptr, i32 } %.pn
}